; Function Attrs: nounwind uwtable
define i32 @pmix_ptl_base_client_handshake(ptr noundef readonly captures(none) %0, i32 noundef %1) local_unnamed_addr #0 {
  %3 = alloca i32, align 4
  switch i32 %1, label %30 [
    i32 -14, label %4
    i32 0, label %14
  ]

4:                                                ; preds = %2
  %5 = getelementptr inbounds nuw i8, ptr %0, i64 120
  %6 = load ptr, ptr %5, align 8, !tbaa !53
  %7 = getelementptr inbounds nuw i8, ptr %6, i64 496
  %8 = load ptr, ptr %7, align 8, !tbaa !119
  %9 = getelementptr inbounds nuw i8, ptr %8, i64 32
  %10 = load ptr, ptr %9, align 8, !tbaa !140
  %11 = getelementptr inbounds nuw i8, ptr %0, i64 156
  %12 = load i32, ptr %11, align 4, !tbaa !138
  %13 = tail call i32 %10(i32 noundef %12) #20
  %.not16 = icmp eq i32 %13, 0
  br i1 %.not16, label %14, label %30

14:                                               ; preds = %2, %4
  %15 = load i32, ptr getelementptr inbounds nuw (i8, ptr @pmix_ptl_base_framework, i64 76), align 4, !tbaa !34
  %or.cond = icmp ult i32 %15, 64
  br i1 %or.cond, label %16, label %22

16:                                               ; preds = %14
  %17 = zext nneg i32 %15 to i64
  %18 = getelementptr inbounds nuw [0 x %struct.pmix_output_desc_t], ptr @pmix_output_info, i64 0, i64 %17, i32 2
  %19 = load i32, ptr %18, align 4, !tbaa !37
  %20 = icmp sgt i32 %19, 1
  br i1 %20, label %21, label %22

21:                                               ; preds = %16
  tail call void (i32, ptr, ...) @pmix_output(i32 noundef %15, ptr noundef nonnull @.str.45) #20
  br label %22

22:                                               ; preds = %14, %16, %21
  call void @llvm.lifetime.start.p0(i64 4, ptr nonnull %3) #20
  %23 = getelementptr inbounds nuw i8, ptr %0, i64 156
  %24 = load i32, ptr %23, align 4, !tbaa !138
  %25 = call i32 @pmix_ptl_base_recv_blocking(i32 noundef %24, ptr noundef nonnull %3, i64 noundef 4) #20
  %.not17 = icmp eq i32 %25, 0
  br i1 %.not17, label %26, label %29

26:                                               ; preds = %22
  %27 = load i32, ptr %3, align 4, !tbaa !77
  %28 = call noundef i32 @llvm.bswap.i32(i32 %27)
  store i32 %28, ptr getelementptr inbounds nuw (i8, ptr @pmix_globals, i64 368), align 8, !tbaa !141
  br label %29

29:                                               ; preds = %22, %26
  call void @llvm.lifetime.end.p0(i64 4, ptr nonnull %3) #20
  br label %30

30:                                               ; preds = %29, %2, %4
  %.0 = phi i32 [ %13, %4 ], [ %1, %2 ], [ %25, %29 ]
  ret i32 %.0
}